(dp1
S'files'
p2
(dp3
S'chemreac_util_tests_test_stoich'
p4
(dp5
S'index'
p6
(dp7
S'html_filename'
p8
S'chemreac_util_tests_test_stoich.html'
p9
sS'name'
p10
S'chemreac/util/tests/test_stoich'
p11
sS'nums'
p12
ccopy_reg
_reconstructor
p13
(ccoverage.results
Numbers
p14
c__builtin__
object
p15
NtRp16
(dp17
S'n_files'
p18
I1
sS'n_branches'
p19
I0
sS'n_statements'
p20
I28
sS'n_excluded'
p21
I0
sS'n_partial_branches'
p22
I0
sS'n_missing'
p23
I0
sS'n_missing_branches'
p24
I0
sbssS'hash'
p25
S'\xb6P\xe2\x0e\x0e\xaeB\xf3;B\x1c\x03Ef\x9a\xf7'
p26
ssS'chemreac_util_tests_test_pyutil'
p27
(dp28
g6
(dp29
g8
S'chemreac_util_tests_test_pyutil.html'
p30
sg10
S'chemreac/util/tests/test_pyutil'
p31
sg12
g13
(g14
g15
NtRp32
(dp33
g18
I1
sg19
I0
sg20
I22
sg21
I0
sg22
I0
sg23
I0
sg24
I0
sbssg25
S'b056\xf4\xf1\xcaLIW6\xde\xac\xfb\xdfB'
p34
ssS'chemreac_util_table'
p35
(dp36
g6
(dp37
g8
S'chemreac_util_table.html'
p38
sg10
S'chemreac/util/table'
p39
sg12
g13
(g14
g15
NtRp40
(dp41
g18
I1
sg19
I0
sg20
I103
sg21
I0
sg22
I0
sg23
I19
sg24
I0
sbssg25
S'\xee=\xf1M\xd0\xd5|\xd4\xa2\xf5\xe9a\xc51\x84\xed'
p42
ssS'chemreac___init__'
p43
(dp44
g6
(dp45
g8
S'chemreac___init__.html'
p46
sg10
S'chemreac/__init__'
p47
sg12
g13
(g14
g15
NtRp48
(dp49
g18
I1
sg19
I0
sg20
I3
sg21
I0
sg22
I0
sg23
I0
sg24
I0
sbssg25
S'\xd2\x84\xbc\xf9\xcc\xf2]\xd4M\x1b\x87\x87\xc3\xa9\xb2\xbe'
p50
ssS'chemreac_tests_test_constants'
p51
(dp52
g6
(dp53
g8
S'chemreac_tests_test_constants.html'
p54
sg10
S'chemreac/tests/test_constants'
p55
sg12
g13
(g14
g15
NtRp56
(dp57
g18
I1
sg19
I0
sg20
I4
sg21
I0
sg22
I0
sg23
I0
sg24
I0
sbssg25
S'}\xad\x10/\x04V\xfci\xfc\xab>\x9f-\x84P\x84'
p58
ssS'chemreac_tests_test_serialization'
p59
(dp60
g6
(dp61
g8
S'chemreac_tests_test_serialization.html'
p62
sg10
S'chemreac/tests/test_serialization'
p63
sg12
g13
(g14
g15
NtRp64
(dp65
g18
I1
sg19
I0
sg20
I16
sg21
I0
sg22
I0
sg23
I0
sg24
I0
sbssg25
S'\xf5L2`3nh\xbd,\x89\xbe\x95U\xe1\x07\xac'
p66
ssS'chemreac_util_physchem'
p67
(dp68
g6
(dp69
g8
S'chemreac_util_physchem.html'
p70
sg10
S'chemreac/util/physchem'
p71
sg12
g13
(g14
g15
NtRp72
(dp73
g18
I1
sg19
I0
sg20
I5
sg21
I0
sg22
I0
sg23
I0
sg24
I0
sbssg25
S'\x08\xf2\x8co^\xae]\xe0f\x14\xc1`\xbb\xbfW\xe2'
p74
ssS'chemreac_util_tests___init__'
p75
(dp76
g6
(dp77
g8
S'chemreac_util_tests___init__.html'
p78
sg10
S'chemreac/util/tests/__init__'
p79
sg12
g13
(g14
g15
NtRp80
(dp81
g18
I1
sg19
I0
sg20
I0
sg21
I0
sg22
I0
sg23
I0
sg24
I0
sbssg25
S'\xca\xf5\x9f\x7f\x88\xdfa\x831|T\x1d\xbc}\xa5v'
p82
ssS'chemreac_util_pyutil'
p83
(dp84
g6
(dp85
g8
S'chemreac_util_pyutil.html'
p86
sg10
S'chemreac/util/pyutil'
p87
sg12
g13
(g14
g15
NtRp88
(dp89
g18
I1
sg19
I0
sg20
I26
sg21
I0
sg22
I0
sg23
I1
sg24
I0
sbssg25
S"\xc0\xb8\xf1n5\x91\\\xee\xfc'ex\x9ff\xc3\xe9"
p90
ssS'chemreac_tests_test_binary_system'
p91
(dp92
g6
(dp93
g8
S'chemreac_tests_test_binary_system.html'
p94
sg10
S'chemreac/tests/test_binary_system'
p95
sg12
g13
(g14
g15
NtRp96
(dp97
g18
I1
sg19
I0
sg20
I118
sg21
I0
sg22
I0
sg23
I0
sg24
I0
sbssg25
S'\xe8\xca\x9f\x05[A$\xdfX\xe1\x8f\xfa\x81\xa6\xa8\x06'
p98
ssS'chemreac_tests_test_four_species'
p99
(dp100
g6
(dp101
g8
S'chemreac_tests_test_four_species.html'
p102
sg10
S'chemreac/tests/test_four_species'
p103
sg12
g13
(g14
g15
NtRp104
(dp105
g18
I1
sg19
I0
sg20
I119
sg21
I0
sg22
I0
sg23
I15
sg24
I0
sbssg25
S'\x9eay\x06.}\xc3,\x1f$\xf0l/\x87\xb0\x13'
p106
ssS'chemreac_util___init__'
p107
(dp108
g6
(dp109
g8
S'chemreac_util___init__.html'
p110
sg10
S'chemreac/util/__init__'
p111
sg12
g13
(g14
g15
NtRp112
(dp113
g18
I1
sg19
I0
sg20
I0
sg21
I0
sg22
I0
sg23
I0
sg24
I0
sbssg25
S'\xca\xf5\x9f\x7f\x88\xdfa\x831|T\x1d\xbc}\xa5v'
p114
ssS'chemreac_tests_test_reactiondiffusion'
p115
(dp116
g6
(dp117
g8
S'chemreac_tests_test_reactiondiffusion.html'
p118
sg10
S'chemreac/tests/test_reactiondiffusion'
p119
sg12
g13
(g14
g15
NtRp120
(dp121
g18
I1
sg19
I0
sg20
I480
sg21
I0
sg22
I0
sg23
I17
sg24
I0
sbssg25
S'\x8d\x89\xd1\xf8\xc7d\xcay\xdd\xc7V\x1c\xe1\x10\xb4\xd5'
p122
ssS'chemreac_tests_test_chemistry'
p123
(dp124
g6
(dp125
g8
S'chemreac_tests_test_chemistry.html'
p126
sg10
S'chemreac/tests/test_chemistry'
p127
sg12
g13
(g14
g15
NtRp128
(dp129
g18
I1
sg19
I0
sg20
I37
sg21
I0
sg22
I0
sg23
I0
sg24
I0
sbssg25
S'/\x9f\xc3\x90\xbc\xf8\xdc5\x04\xd4\x94M7>\x8e`'
p130
ssS'chemreac_util_tests_test_physchem'
p131
(dp132
g6
(dp133
g8
S'chemreac_util_tests_test_physchem.html'
p134
sg10
S'chemreac/util/tests/test_physchem'
p135
sg12
g13
(g14
g15
NtRp136
(dp137
g18
I1
sg19
I0
sg20
I11
sg21
I0
sg22
I0
sg23
I0
sg24
I0
sbssg25
S'\xd4\xf7\x02\x82\x92 W\x8c\x00R]\xee\xb4\x1f\x00O'
p138
ssS'chemreac_release'
p139
(dp140
g6
(dp141
g8
S'chemreac_release.html'
p142
sg10
S'chemreac/release'
p143
sg12
g13
(g14
g15
NtRp144
(dp145
g18
I1
sg19
I0
sg20
I1
sg21
I0
sg22
I0
sg23
I0
sg24
I0
sbssg25
S'\x0e\xfa/vd\x04\x96\xe2\xc2\xe9w?\x82`!u'
p146
ssS'chemreac_util_testing'
p147
(dp148
g6
(dp149
g8
S'chemreac_util_testing.html'
p150
sg10
S'chemreac/util/testing'
p151
sg12
g13
(g14
g15
NtRp152
(dp153
g18
I1
sg19
I0
sg20
I28
sg21
I0
sg22
I0
sg23
I1
sg24
I0
sbssg25
S'\xfc\xea\xf0\xba\xa5\xc6\xbc\xb4\x19+\xa4\xe2\xe6Q\xf4\xb2'
p154
ssS'chemreac_tests_test_units'
p155
(dp156
g6
(dp157
g8
S'chemreac_tests_test_units.html'
p158
sg10
S'chemreac/tests/test_units'
p159
sg12
g13
(g14
g15
NtRp160
(dp161
g18
I1
sg19
I0
sg20
I56
sg21
I0
sg22
I0
sg23
I0
sg24
I0
sbssg25
S'\xd9*\xf7\xeeLa\xe6\x00L\xe0\x9e;\xac\xf7\xbe\x9a'
p162
ssS'chemreac_util_plotting'
p163
(dp164
g6
(dp165
g8
S'chemreac_util_plotting.html'
p166
sg10
S'chemreac/util/plotting'
p167
sg12
g13
(g14
g15
NtRp168
(dp169
g18
I1
sg19
I0
sg20
I310
sg21
I0
sg22
I0
sg23
I60
sg24
I0
sbssg25
S'}\xf9\x1ao\xac\x8f\xef\x88\x02>\xde(/o\xd4]'
p170
ssS'chemreac_serialization'
p171
(dp172
g6
(dp173
g8
S'chemreac_serialization.html'
p174
sg10
S'chemreac/serialization'
p175
sg12
g13
(g14
g15
NtRp176
(dp177
g18
I1
sg19
I0
sg20
I38
sg21
I0
sg22
I0
sg23
I2
sg24
I0
sbssg25
S'\xdc\xae1\x93\xec\x17\xebhd\xe7\x92P\x1f\xc1n\x06'
p178
ssS'chemreac_constants'
p179
(dp180
g6
(dp181
g8
S'chemreac_constants.html'
p182
sg10
S'chemreac/constants'
p183
sg12
g13
(g14
g15
NtRp184
(dp185
g18
I1
sg19
I0
sg20
I13
sg21
I0
sg22
I0
sg23
I0
sg24
I0
sbssg25
S'\x8e\xb1amM\x19\x9e\x86m?ddg\xf3\xd9\x07'
p186
ssS'chemreac_chemistry'
p187
(dp188
g6
(dp189
g8
S'chemreac_chemistry.html'
p190
sg10
S'chemreac/chemistry'
p191
sg12
g13
(g14
g15
NtRp192
(dp193
g18
I1
sg19
I0
sg20
I153
sg21
I0
sg22
I0
sg23
I17
sg24
I0
sbssg25
S'Nh#\x9bG\x1a,\xb1\n\xed\xab\xa4\x84\xe9\x11\x96'
p194
ssS'chemreac_util_tests_test_graph'
p195
(dp196
g6
(dp197
g8
S'chemreac_util_tests_test_graph.html'
p198
sg10
S'chemreac/util/tests/test_graph'
p199
sg12
g13
(g14
g15
NtRp200
(dp201
g18
I1
sg19
I0
sg20
I22
sg21
I0
sg22
I0
sg23
I0
sg24
I0
sbssg25
S'n\xb5\x14\xd7j\xec\xa9\xbc,\xda/m\x1b\xa1\x89m'
p202
ssS'chemreac_util_stoich'
p203
(dp204
g6
(dp205
g8
S'chemreac_util_stoich.html'
p206
sg10
S'chemreac/util/stoich'
p207
sg12
g13
(g14
g15
NtRp208
(dp209
g18
I1
sg19
I0
sg20
I31
sg21
I0
sg22
I0
sg23
I1
sg24
I0
sbssg25
S'\xd6\xf7\xed\xff\xc7\xf9\x07\x88\xc5\x8b\xd6\xd5\xd7\xad\xef\xdc'
p210
ssS'chemreac_tests___init__'
p211
(dp212
g6
(dp213
g8
S'chemreac_tests___init__.html'
p214
sg10
S'chemreac/tests/__init__'
p215
sg12
g13
(g14
g15
NtRp216
(dp217
g18
I1
sg19
I0
sg20
I0
sg21
I0
sg22
I0
sg23
I0
sg24
I0
sbssg25
S'\xca\xf5\x9f\x7f\x88\xdfa\x831|T\x1d\xbc}\xa5v'
p218
ssS'chemreac_symbolic'
p219
(dp220
g6
(dp221
g8
S'chemreac_symbolic.html'
p222
sg10
S'chemreac/symbolic'
p223
sg12
g13
(g14
g15
NtRp224
(dp225
g18
I1
sg19
I0
sg20
I128
sg21
I0
sg22
I0
sg23
I2
sg24
I0
sbssg25
S'j\xee\x9cT2V~s%\x80_,\x8d\xeb\x80\x8b'
p226
ssS'chemreac_util_tests_test_grid'
p227
(dp228
g6
(dp229
g8
S'chemreac_util_tests_test_grid.html'
p230
sg10
S'chemreac/util/tests/test_grid'
p231
sg12
g13
(g14
g15
NtRp232
(dp233
g18
I1
sg19
I0
sg20
I33
sg21
I0
sg22
I0
sg23
I0
sg24
I0
sbssg25
S'\xe6\xc5\x10]\xfc\x9f\xb8i\x06\xa3\x14F\x05K{\xf8'
p234
ssS'chemreac_util_tests_test_plotting'
p235
(dp236
g6
(dp237
g8
S'chemreac_util_tests_test_plotting.html'
p238
sg10
S'chemreac/util/tests/test_plotting'
p239
sg12
g13
(g14
g15
NtRp240
(dp241
g18
I1
sg19
I0
sg20
I102
sg21
I0
sg22
I0
sg23
I0
sg24
I0
sbssg25
S'A\xec\xc9\xf0c\xdf\t\x84\xb4\x9c\xedL\x18 \xbb\xb8'
p242
ssS'chemreac_util_banded'
p243
(dp244
g6
(dp245
g8
S'chemreac_util_banded.html'
p246
sg10
S'chemreac/util/banded'
p247
sg12
g13
(g14
g15
NtRp248
(dp249
g18
I1
sg19
I0
sg20
I23
sg21
I0
sg22
I0
sg23
I0
sg24
I0
sbssg25
S'\xe0?\\Z\xe8mG\xcb\xa1\xe8:\xb9\xc2\xe9[h'
p250
ssS'chemreac_util_analysis'
p251
(dp252
g6
(dp253
g8
S'chemreac_util_analysis.html'
p254
sg10
S'chemreac/util/analysis'
p255
sg12
g13
(g14
g15
NtRp256
(dp257
g18
I1
sg19
I0
sg20
I22
sg21
I0
sg22
I0
sg23
I0
sg24
I0
sbssg25
S'\xc2U\xf4\xd3\xdcb\xb9\xda\x94\xbb\xa2\xa8q0\xc9q'
p258
ssS'chemreac_tests_test_integrate'
p259
(dp260
g6
(dp261
g8
S'chemreac_tests_test_integrate.html'
p262
sg10
S'chemreac/tests/test_integrate'
p263
sg12
g13
(g14
g15
NtRp264
(dp265
g18
I1
sg19
I0
sg20
I127
sg21
I0
sg22
I0
sg23
I15
sg24
I0
sbssg25
S'\xd1|\r\x96\xd8\xcbH\xf7\x00\xe4jN\x18B\xff\xbe'
p266
ssS'chemreac_units'
p267
(dp268
g6
(dp269
g8
S'chemreac_units.html'
p270
sg10
S'chemreac/units'
p271
sg12
g13
(g14
g15
NtRp272
(dp273
g18
I1
sg19
I0
sg20
I100
sg21
I0
sg22
I0
sg23
I13
sg24
I0
sbssg25
S'\xb6W\x1a\x1ds\xdb\xfc\xd72\xaeq\xe6I\x10+\\'
p274
ssS'chemreac_util_compressed_jac_store'
p275
(dp276
g6
(dp277
g8
S'chemreac_util_compressed_jac_store.html'
p278
sg10
S'chemreac/util/compressed_jac_store'
p279
sg12
g13
(g14
g15
NtRp280
(dp281
g18
I1
sg19
I0
sg20
I27
sg21
I0
sg22
I0
sg23
I2
sg24
I0
sbssg25
S'\x91\x95\x05\xb4\xb5\xadB2\x97\xc7k\x9a\x9e\x80\xe8\xaa'
p282
ssS'chemreac_util_tests_test_table'
p283
(dp284
g6
(dp285
g8
S'chemreac_util_tests_test_table.html'
p286
sg10
S'chemreac/util/tests/test_table'
p287
sg12
g13
(g14
g15
NtRp288
(dp289
g18
I1
sg19
I0
sg20
I25
sg21
I0
sg22
I0
sg23
I0
sg24
I0
sbssg25
S'\x0bZ\xe2l:\x92<l\xa9D]\x01\xd4M\x1e|'
p290
ssS'chemreac_integrate'
p291
(dp292
g6
(dp293
g8
S'chemreac_integrate.html'
p294
sg10
S'chemreac/integrate'
p295
sg12
g13
(g14
g15
NtRp296
(dp297
g18
I1
sg19
I0
sg20
I183
sg21
I0
sg22
I0
sg23
I22
sg24
I0
sbssg25
S't\xde\xb2\xf6wg\xd3\xd1\xf9}\t\xbc\xb6\xaf\x1c\x86'
p298
ssS'chemreac_tests_test_symbolic'
p299
(dp300
g6
(dp301
g8
S'chemreac_tests_test_symbolic.html'
p302
sg10
S'chemreac/tests/test_symbolic'
p303
sg12
g13
(g14
g15
NtRp304
(dp305
g18
I1
sg19
I0
sg20
I11
sg21
I0
sg22
I0
sg23
I0
sg24
I0
sbssg25
S'\x10\xc3\xd4zx\x041\xe0N\xd0\x1c0\xff\x19\xebq'
p306
ssS'chemreac_core'
p307
(dp308
g6
(dp309
g8
S'chemreac_core.html'
p310
sg10
S'chemreac/core'
p311
sg12
g13
(g14
g15
NtRp312
(dp313
g18
I1
sg19
I0
sg20
I152
sg21
I0
sg22
I0
sg23
I18
sg24
I0
sbssg25
S'&\\\xe5\x1b\x17\xcdk\xcd\xbf\x08\xaa\t\xb0n\x95P'
p314
ssS'chemreac_util_tests_test_analysis'
p315
(dp316
g6
(dp317
g8
S'chemreac_util_tests_test_analysis.html'
p318
sg10
S'chemreac/util/tests/test_analysis'
p319
sg12
g13
(g14
g15
NtRp320
(dp321
g18
I1
sg19
I0
sg20
I16
sg21
I0
sg22
I0
sg23
I0
sg24
I0
sbssg25
S'\xcf\xe3\xcc=\xcaC@\x84#\xdd\xb92I\xf2\x07%'
p322
ssS'chemreac_util_tests_test_banded'
p323
(dp324
g6
(dp325
g8
S'chemreac_util_tests_test_banded.html'
p326
sg10
S'chemreac/util/tests/test_banded'
p327
sg12
g13
(g14
g15
NtRp328
(dp329
g18
I1
sg19
I0
sg20
I19
sg21
I0
sg22
I0
sg23
I0
sg24
I0
sbssg25
S'\xd3\xa6:[\xfc\x8a\xcb\x9d\x02\xde\x00#\xdb(\xf7\xec'
p330
ssS'chemreac_util_grid'
p331
(dp332
g6
(dp333
g8
S'chemreac_util_grid.html'
p334
sg10
S'chemreac/util/grid'
p335
sg12
g13
(g14
g15
NtRp336
(dp337
g18
I1
sg19
I0
sg20
I32
sg21
I0
sg22
I0
sg23
I2
sg24
I0
sbssg25
S'\'\x99\x04\xaa\x02<(Ji/"_\x93i\x882'
p338
ssS'chemreac_util_graph'
p339
(dp340
g6
(dp341
g8
S'chemreac_util_graph.html'
p342
sg10
S'chemreac/util/graph'
p343
sg12
g13
(g14
g15
NtRp344
(dp345
g18
I1
sg19
I0
sg20
I54
sg21
I0
sg22
I0
sg23
I6
sg24
I0
sbssg25
S'\x19\x89\xc0\x1e\xa8\tr\x9f\x03e\xe8[\xe1\xd8\x8f\x02'
p346
sssS'version'
p347
S'3.7.1'
p348
sS'settings'
p349
S'\x1dF\x1b\xfc\xf3w\x91\\\xb7F\xe5F\xbd\xca\x19\xe5'
p350
sS'format'
p351
I1
s.